; Function Attrs: nounwind uwtable
define ptr @OSSL_DECODER_get0_properties(ptr noundef readonly captures(address_is_null) %0) local_unnamed_addr #2 {
  %.not = icmp eq ptr %0, null
  br i1 %.not, label %2, label %3, !prof !48

2:                                                ; preds = %1
  tail call void @ERR_new() #8
  tail call void @ERR_set_debug(ptr noundef nonnull @.str, i32 noundef 477, ptr noundef nonnull @__func__.OSSL_DECODER_get0_properties) #8
  tail call void (i32, i32, ptr, ...) @ERR_set_error(i32 noundef 60, i32 noundef 786690, ptr noundef null) #8
  br label %8

3:                                                ; preds = %1
  %4 = getelementptr inbounds nuw i8, ptr %0, i64 24
  %5 = load ptr, ptr %4, align 8, !tbaa !22
  %6 = getelementptr inbounds nuw i8, ptr %5, i64 8
  %7 = load ptr, ptr %6, align 8, !tbaa !23
  br label %8

8:                                                ; preds = %3, %2
  %.0 = phi ptr [ %7, %3 ], [ null, %2 ]
  ret ptr %.0
}